; Function Attrs: mustprogress nounwind uwtable
define hidden void @_ZNK13ZBarrierSetC210emit_stubsER10CodeBuffer(ptr nocapture nonnull readnone align 8 %0, ptr noundef nonnull align 8 dereferenceable(448) %1) unnamed_addr #0 align 2 {
  %3 = alloca %class.MacroAssembler, align 8
  call void @_ZN17AbstractAssemblerC2EP10CodeBuffer(ptr noundef nonnull align 8 dereferenceable(24) %3, ptr noundef nonnull %1) #14
  store ptr getelementptr inbounds inrange(-16, 8) (i8, ptr @_ZTV9Assembler, i64 16), ptr %3, align 8
  call void @_ZN9Assembler15init_attributesEv(ptr noundef nonnull align 8 dereferenceable(40) %3) #14
  store ptr getelementptr inbounds inrange(-16, 40) (i8, ptr @_ZTV14MacroAssembler, i64 16), ptr %3, align 8
  %4 = call align 8 ptr @llvm.threadlocal.address.p0(ptr align 8 @_ZN6Thread12_thr_currentE)
  %5 = load ptr, ptr %4, align 8
  %6 = getelementptr inbounds i8, ptr %5, i64 1808
  %7 = load ptr, ptr %6, align 8
  %8 = getelementptr inbounds i8, ptr %7, i64 128
  %9 = load ptr, ptr %8, align 8
  %10 = getelementptr inbounds i8, ptr %9, i64 344
  %11 = load ptr, ptr %10, align 8
  %12 = getelementptr inbounds i8, ptr %11, i64 32
  %13 = load ptr, ptr %12, align 8
  %14 = getelementptr inbounds i8, ptr %3, i64 8
  %15 = load ptr, ptr %14, align 8
  %16 = getelementptr inbounds i8, ptr %15, i64 16
  %17 = load ptr, ptr %16, align 8
  %18 = load ptr, ptr %15, align 8
  %19 = ptrtoint ptr %17 to i64
  %20 = ptrtoint ptr %18 to i64
  %21 = sub i64 %19, %20
  %22 = trunc i64 %21 to i32
  %23 = getelementptr inbounds i8, ptr %11, i64 44
  store i32 %22, ptr %23, align 4
  %24 = load i32, ptr %13, align 4
  %25 = icmp sgt i32 %24, 0
  br i1 %25, label %.lr.ph, label %._crit_edge

.lr.ph:                                           ; preds = %2
  %26 = getelementptr inbounds i8, ptr %1, i64 120
  %27 = getelementptr inbounds i8, ptr %1, i64 112
  %28 = getelementptr inbounds i8, ptr %1, i64 96
  %29 = getelementptr inbounds i8, ptr %1, i64 176
  %30 = getelementptr inbounds i8, ptr %1, i64 280
  %31 = getelementptr inbounds i8, ptr %13, i64 8
  br label %32

32:                                               ; preds = %.lr.ph, %_ZN11CodeSection32maybe_expand_to_ensure_remainingEi.exit
  %indvars.iv = phi i64 [ 0, %.lr.ph ], [ %indvars.iv.next, %_ZN11CodeSection32maybe_expand_to_ensure_remainingEi.exit ]
  %33 = load ptr, ptr %26, align 8
  %34 = load ptr, ptr %27, align 8
  %35 = ptrtoint ptr %33 to i64
  %36 = ptrtoint ptr %34 to i64
  %37 = sub i64 %35, %36
  %38 = trunc i64 %37 to i32
  %39 = icmp slt i32 %38, 2048
  br i1 %39, label %40, label %_ZN11CodeSection32maybe_expand_to_ensure_remainingEi.exit

40:                                               ; preds = %32
  %41 = load ptr, ptr %29, align 8
  call void @_ZN10CodeBuffer6expandEP11CodeSectioni(ptr noundef nonnull align 8 dereferenceable(448) %41, ptr noundef nonnull %28, i32 noundef 2048) #14
  %42 = load ptr, ptr %30, align 8
  %43 = icmp eq ptr %42, null
  br i1 %43, label %44, label %_ZN11CodeSection32maybe_expand_to_ensure_remainingEi.exit

44:                                               ; preds = %40
  %45 = load ptr, ptr %4, align 8
  %46 = getelementptr inbounds i8, ptr %45, i64 1808
  %47 = load ptr, ptr %46, align 8
  call void @_ZN5ciEnv14record_failureEPKc(ptr noundef nonnull align 8 dereferenceable(1265) %47, ptr noundef nonnull @.str) #14
  br label %56

_ZN11CodeSection32maybe_expand_to_ensure_remainingEi.exit: ; preds = %32, %40
  %48 = load ptr, ptr %31, align 8
  %49 = getelementptr inbounds ptr, ptr %48, i64 %indvars.iv
  %50 = load ptr, ptr %49, align 8
  %51 = load ptr, ptr %50, align 8
  %52 = load ptr, ptr %51, align 8
  call void %52(ptr noundef nonnull align 8 dereferenceable(192) %50, ptr noundef nonnull align 8 dereferenceable(40) %3) #14
  %indvars.iv.next = add nuw nsw i64 %indvars.iv, 1
  %53 = load i32, ptr %13, align 4
  %54 = sext i32 %53 to i64
  %55 = icmp slt i64 %indvars.iv.next, %54
  br i1 %55, label %32, label %._crit_edge, !llvm.loop !10

._crit_edge:                                      ; preds = %_ZN11CodeSection32maybe_expand_to_ensure_remainingEi.exit, %2
  call void @_ZN17AbstractAssembler5flushEv(ptr noundef nonnull align 8 dereferenceable(24) %3) #14
  br label %56

56:                                               ; preds = %._crit_edge, %44
  ret void
}